; Function Attrs: mustprogress uwtable
define noundef signext i8 @uregex_find_75(ptr noundef readonly %regexp2, i32 noundef %startIndex, ptr noundef %status) local_unnamed_addr #5 {
entry:
  %conv = sext i32 %startIndex to i64
  %0 = load i32, ptr %status, align 4
  %cmp.i.i.i = icmp slt i32 %0, 1
  br i1 %cmp.i.i.i, label %if.end.i.i, label %uregex_find64_75.exit

if.end.i.i:                                       ; preds = %entry
  %cmp.i.i = icmp eq ptr %regexp2, null
  br i1 %cmp.i.i, label %return.sink.split.i.i, label %lor.lhs.false.i.i

lor.lhs.false.i.i:                                ; preds = %if.end.i.i
  %1 = load i32, ptr %regexp2, align 8
  %cmp1.not.i.i = icmp eq i32 %1, 1919252592
  br i1 %cmp1.not.i.i, label %if.end3.i.i, label %return.sink.split.i.i

if.end3.i.i:                                      ; preds = %lor.lhs.false.i.i
  %fText.i.i = getelementptr inbounds i8, ptr %regexp2, i64 48
  %2 = load ptr, ptr %fText.i.i, align 8
  %cmp5.i.i = icmp eq ptr %2, null
  br i1 %cmp5.i.i, label %land.lhs.true6.i.i, label %if.end.i

land.lhs.true6.i.i:                               ; preds = %if.end3.i.i
  %fOwnsText.i.i = getelementptr inbounds i8, ptr %regexp2, i64 60
  %3 = load i8, ptr %fOwnsText.i.i, align 4
  %tobool7.not.i.i = icmp eq i8 %3, 0
  br i1 %tobool7.not.i.i, label %return.sink.split.i.i, label %if.end.i

return.sink.split.i.i:                            ; preds = %land.lhs.true6.i.i, %lor.lhs.false.i.i, %if.end.i.i
  %.sink.i.i = phi i32 [ 1, %lor.lhs.false.i.i ], [ 1, %if.end.i.i ], [ 66306, %land.lhs.true6.i.i ]
  store i32 %.sink.i.i, ptr %status, align 4
  br label %uregex_find64_75.exit

if.end.i:                                         ; preds = %land.lhs.true6.i.i, %if.end3.i.i
  %cmp1.i = icmp eq i32 %startIndex, -1
  %fMatcher.i = getelementptr inbounds i8, ptr %regexp2, i64 40
  %4 = load ptr, ptr %fMatcher.i, align 8
  br i1 %cmp1.i, label %if.then2.i, label %if.else.i

if.then2.i:                                       ; preds = %if.end.i
  tail call void @_ZN6icu_7512RegexMatcher19resetPreserveRegionEv(ptr noundef nonnull align 8 dereferenceable(336) %4)
  %5 = load ptr, ptr %fMatcher.i, align 8
  %call4.i = tail call noundef signext i8 @_ZN6icu_7512RegexMatcher4findER10UErrorCode(ptr noundef nonnull align 8 dereferenceable(336) %5, ptr noundef nonnull align 4 dereferenceable(4) %status)
  br label %uregex_find64_75.exit

if.else.i:                                        ; preds = %if.end.i
  %call6.i = tail call noundef signext i8 @_ZN6icu_7512RegexMatcher4findElR10UErrorCode(ptr noundef nonnull align 8 dereferenceable(336) %4, i64 noundef %conv, ptr noundef nonnull align 4 dereferenceable(4) %status)
  br label %uregex_find64_75.exit

uregex_find64_75.exit:                            ; preds = %entry, %return.sink.split.i.i, %if.then2.i, %if.else.i
  %retval.0.i = phi i8 [ %call4.i, %if.then2.i ], [ %call6.i, %if.else.i ], [ 0, %entry ], [ 0, %return.sink.split.i.i ]
  ret i8 %retval.0.i
}